; Function Attrs: mustprogress uwtable
define hidden void @_ZNK8facebook6hermes7tracing10SynthTrace11ReturnMixin14toJSONInternalERN6hermes11JSONEmitterE(ptr nocapture noundef nonnull readonly align 8 dereferenceable(16) %this, ptr noundef nonnull align 8 dereferenceable(72) %json) local_unnamed_addr #1 align 2 personality ptr @__gxx_personality_v0 {
entry:
  %ref.tmp = alloca %"class.std::__cxx11::basic_string", align 8
  %agg.tmp2.sroa.0.0.copyload = load i32, ptr %this, align 8
  %agg.tmp2.sroa.21.0.retVal_.sroa_idx = getelementptr inbounds i8, ptr %this, i64 8
  %agg.tmp2.sroa.21.0.copyload = load i64, ptr %agg.tmp2.sroa.21.0.retVal_.sroa_idx, align 8
  call void @_ZN8facebook6hermes7tracing10SynthTrace6encodeB5cxx11ENS2_10TraceValueE(ptr nonnull sret(%"class.std::__cxx11::basic_string") align 8 %ref.tmp, i32 %agg.tmp2.sroa.0.0.copyload, i64 %agg.tmp2.sroa.21.0.copyload)
  invoke void @_ZN6hermes11JSONEmitter7emitKeyEN4llvh9StringRefE(ptr noundef nonnull align 8 dereferenceable(72) %json, ptr nonnull @.str.74, i64 6)
          to label %.noexc unwind label %lpad

.noexc:                                           ; preds = %entry
  %call.i.i = call noundef ptr @_ZNKSt7__cxx1112basic_stringIcSt11char_traitsIcESaIcEE4dataEv(ptr noundef nonnull align 8 dereferenceable(32) %ref.tmp) #23
  %call2.i.i = call noundef i64 @_ZNKSt7__cxx1112basic_stringIcSt11char_traitsIcESaIcEE6lengthEv(ptr noundef nonnull align 8 dereferenceable(32) %ref.tmp) #23
  invoke void @_ZN6hermes11JSONEmitter9emitValueEN4llvh9StringRefE(ptr noundef nonnull align 8 dereferenceable(72) %json, ptr %call.i.i, i64 %call2.i.i)
          to label %invoke.cont unwind label %lpad

invoke.cont:                                      ; preds = %.noexc
  call void @_ZNSt7__cxx1112basic_stringIcSt11char_traitsIcESaIcEED1Ev(ptr noundef nonnull align 8 dereferenceable(32) %ref.tmp) #23
  ret void

lpad:                                             ; preds = %.noexc, %entry
  %0 = landingpad { ptr, i32 }
          cleanup
  call void @_ZNSt7__cxx1112basic_stringIcSt11char_traitsIcESaIcEED1Ev(ptr noundef nonnull align 8 dereferenceable(32) %ref.tmp) #23
  resume { ptr, i32 } %0
}